; ModuleID = '40/2978.c'
source_filename = "40/2978.c"
target datalayout = "e-m:e-p270:32:32-p271:32:32-p272:64:64-i64:64-f80:128-n8:16:32:64-S128"
target triple = "x86_64-pc-linux-gnu"

@.str = private unnamed_addr constant [16 x i8] c"%lf %lf %lf %lf\00", align 1
@.str.1 = private unnamed_addr constant [4 x i8] c"%lf\00", align 1
@.str.2 = private unnamed_addr constant [6 x i8] c"%.4lf\00", align 1
@.str.3 = private unnamed_addr constant [14 x i8] c"Invalid input\00", align 1

; Function Attrs: noinline nounwind uwtable
define dso_local double @mianji(double %0, double %1, double %2, double %3, double %4, double %5) #0 {
  %7 = alloca double, align 8
  %8 = alloca double, align 8
  %9 = alloca double, align 8
  %10 = alloca double, align 8
  %11 = alloca double, align 8
  %12 = alloca double, align 8
  %13 = alloca double, align 8
  %14 = alloca double, align 8
  %15 = alloca double, align 8
  store double %0, double* %8, align 8
  store double %1, double* %9, align 8
  store double %2, double* %10, align 8
  store double %3, double* %11, align 8
  store double %4, double* %12, align 8
  store double %5, double* %13, align 8
  store double 0x400921FB4D12D84A, double* %15, align 8
  %16 = load double, double* %12, align 8
  %17 = load double, double* %8, align 8
  %18 = fsub double %16, %17
  %19 = load double, double* %12, align 8
  %20 = load double, double* %9, align 8
  %21 = fsub double %19, %20
  %22 = fmul double %18, %21
  %23 = load double, double* %12, align 8
  %24 = load double, double* %10, align 8
  %25 = fsub double %23, %24
  %26 = fmul double %22, %25
  %27 = load double, double* %12, align 8
  %28 = load double, double* %11, align 8
  %29 = fsub double %27, %28
  %30 = fmul double %26, %29
  %31 = load double, double* %8, align 8
  %32 = load double, double* %9, align 8
  %33 = fmul double %31, %32
  %34 = load double, double* %10, align 8
  %35 = fmul double %33, %34
  %36 = load double, double* %11, align 8
  %37 = fmul double %35, %36
  %38 = load double, double* %13, align 8
  %39 = load double, double* %15, align 8
  %40 = fmul double %38, %39
  %41 = fdiv double %40, 3.600000e+02
  %42 = call double @cos(double %41) #3
  %43 = fmul double %37, %42
  %44 = load double, double* %13, align 8
  %45 = load double, double* %15, align 8
  %46 = fmul double %44, %45
  %47 = fdiv double %46, 3.600000e+02
  %48 = call double @cos(double %47) #3
  %49 = fmul double %43, %48
  %50 = fsub double %30, %49
  store double %50, double* %14, align 8
  %51 = load double, double* %14, align 8
  %52 = fcmp olt double %51, 0.000000e+00
  br i1 %52, label %53, label %54

53:                                               ; preds = %6
  store double -1.000000e+00, double* %7, align 8
  br label %57

54:                                               ; preds = %6
  %55 = load double, double* %14, align 8
  %56 = call double @sqrt(double %55) #3
  store double %56, double* %7, align 8
  br label %57

57:                                               ; preds = %54, %53
  %58 = load double, double* %7, align 8
  ret double %58
}

; Function Attrs: nounwind
declare dso_local double @cos(double) #1

; Function Attrs: nounwind
declare dso_local double @sqrt(double) #1

; Function Attrs: noinline nounwind uwtable
define dso_local i32 @main() #0 {
  %1 = alloca i32, align 4
  %2 = alloca double, align 8
  %3 = alloca double, align 8
  %4 = alloca double, align 8
  %5 = alloca double, align 8
  %6 = alloca double, align 8
  %7 = alloca double, align 8
  %8 = alloca double, align 8
  store i32 0, i32* %1, align 4
  %9 = call i32 (i8*, ...) @__isoc99_scanf(i8* getelementptr inbounds ([16 x i8], [16 x i8]* @.str, i64 0, i64 0), double* %2, double* %3, double* %4, double* %5)
  %10 = load double, double* %2, align 8
  %11 = load double, double* %3, align 8
  %12 = fadd double %10, %11
  %13 = load double, double* %4, align 8
  %14 = fadd double %12, %13
  %15 = load double, double* %5, align 8
  %16 = fadd double %14, %15
  %17 = fdiv double %16, 2.000000e+00
  store double %17, double* %6, align 8
  %18 = call i32 (i8*, ...) @__isoc99_scanf(i8* getelementptr inbounds ([4 x i8], [4 x i8]* @.str.1, i64 0, i64 0), double* %7)
  %19 = load double, double* %7, align 8
  store double %19, double* %7, align 8
  store double -1.000000e+00, double* %8, align 8
  %20 = load double, double* %2, align 8
  %21 = load double, double* %3, align 8
  %22 = load double, double* %4, align 8
  %23 = load double, double* %5, align 8
  %24 = load double, double* %6, align 8
  %25 = load double, double* %7, align 8
  %26 = call double @mianji(double %20, double %21, double %22, double %23, double %24, double %25)
  store double %26, double* %8, align 8
  %27 = load double, double* %8, align 8
  %28 = fcmp oge double %27, 0.000000e+00
  br i1 %28, label %29, label %32

29:                                               ; preds = %0
  %30 = load double, double* %8, align 8
  %31 = call i32 (i8*, ...) @printf(i8* getelementptr inbounds ([6 x i8], [6 x i8]* @.str.2, i64 0, i64 0), double %30)
  br label %34

32:                                               ; preds = %0
  %33 = call i32 (i8*, ...) @printf(i8* getelementptr inbounds ([14 x i8], [14 x i8]* @.str.3, i64 0, i64 0))
  br label %34

34:                                               ; preds = %32, %29
  %35 = load i32, i32* %1, align 4
  ret i32 %35
}

declare dso_local i32 @__isoc99_scanf(i8*, ...) #2

declare dso_local i32 @printf(i8*, ...) #2


!llvm.module.flags = !{!0}
!llvm.ident = !{!1}

!0 = !{i32 1, !"wchar_size", i32 4}
!1 = !{!"clang version 10.0.0-4ubuntu1 "}
