; ModuleID = 'source-C-CXX/39/2978.c'
source_filename = "source-C-CXX/39/2978.c"
target datalayout = "e-m:e-p270:32:32-p271:32:32-p272:64:64-i64:64-f80:128-n8:16:32:64-S128"
target triple = "x86_64-pc-linux-gnu"

@.str = private unnamed_addr constant [16 x i8] c"%lf %lf %lf %lf\00", align 1
@.str.1 = private unnamed_addr constant [4 x i8] c"%lf\00", align 1
@.str.2 = private unnamed_addr constant [6 x i8] c"%.4lf\00", align 1
@.str.3 = private unnamed_addr constant [14 x i8] c"Invalid input\00", align 1

; Function Attrs: mustprogress nofree nounwind sspstrong uwtable willreturn
define dso_local double @mianji(double %0, double %1, double %2, double %3, double %4, double %5) local_unnamed_addr #0 {
  %7 = fsub double %4, %0
  %8 = fsub double %4, %1
  %9 = fmul double %7, %8
  %10 = fsub double %4, %2
  %11 = fmul double %10, %9
  %12 = fsub double %4, %3
  %13 = fmul double %12, %11
  %14 = fmul double %0, %1
  %15 = fmul double %14, %2
  %16 = fmul double %15, %3
  %17 = fmul double %5, 0x400921FB4D12D84A
  %18 = fdiv double %17, 3.600000e+02
  %19 = tail call double @cos(double %18) #5
  %20 = fmul double %16, %19
  %21 = tail call double @cos(double %18) #5
  %22 = fmul double %20, %21
  %23 = fsub double %13, %22
  %24 = fcmp olt double %23, 0.000000e+00
  br i1 %24, label %27, label %25

25:                                               ; preds = %6
  %26 = tail call double @sqrt(double %23) #5
  br label %27

27:                                               ; preds = %6, %25
  %28 = phi double [ %26, %25 ], [ -1.000000e+00, %6 ]
  ret double %28
}

; Function Attrs: argmemonly mustprogress nofree nosync nounwind willreturn
declare void @llvm.lifetime.start.p0i8(i64 immarg, i8* nocapture) #1

; Function Attrs: mustprogress nofree nounwind willreturn
declare double @cos(double) local_unnamed_addr #2

; Function Attrs: mustprogress nofree nounwind willreturn
declare double @sqrt(double) local_unnamed_addr #2

; Function Attrs: argmemonly mustprogress nofree nosync nounwind willreturn
declare void @llvm.lifetime.end.p0i8(i64 immarg, i8* nocapture) #1

; Function Attrs: nofree nounwind sspstrong uwtable
define dso_local i32 @main() local_unnamed_addr #3 {
  %1 = alloca double, align 8
  %2 = alloca double, align 8
  %3 = alloca double, align 8
  %4 = alloca double, align 8
  %5 = alloca double, align 8
  %6 = bitcast double* %1 to i8*
  call void @llvm.lifetime.start.p0i8(i64 8, i8* nonnull %6) #5
  %7 = bitcast double* %2 to i8*
  call void @llvm.lifetime.start.p0i8(i64 8, i8* nonnull %7) #5
  %8 = bitcast double* %3 to i8*
  call void @llvm.lifetime.start.p0i8(i64 8, i8* nonnull %8) #5
  %9 = bitcast double* %4 to i8*
  call void @llvm.lifetime.start.p0i8(i64 8, i8* nonnull %9) #5
  %10 = call i32 (i8*, ...) @__isoc99_scanf(i8* getelementptr inbounds ([16 x i8], [16 x i8]* @.str, i64 0, i64 0), double* nonnull %1, double* nonnull %2, double* nonnull %3, double* nonnull %4)
  %11 = load double, double* %1, align 8, !tbaa !5
  %12 = load double, double* %2, align 8, !tbaa !5
  %13 = fadd double %11, %12
  %14 = load double, double* %3, align 8, !tbaa !5
  %15 = fadd double %13, %14
  %16 = load double, double* %4, align 8, !tbaa !5
  %17 = fadd double %15, %16
  %18 = fmul double %17, 5.000000e-01
  %19 = bitcast double* %5 to i8*
  call void @llvm.lifetime.start.p0i8(i64 8, i8* nonnull %19) #5
  %20 = call i32 (i8*, ...) @__isoc99_scanf(i8* getelementptr inbounds ([4 x i8], [4 x i8]* @.str.1, i64 0, i64 0), double* nonnull %5)
  %21 = load double, double* %5, align 8, !tbaa !5
  %22 = load double, double* %1, align 8, !tbaa !5
  %23 = load double, double* %2, align 8, !tbaa !5
  %24 = load double, double* %3, align 8, !tbaa !5
  %25 = load double, double* %4, align 8, !tbaa !5
  %26 = fsub double %18, %22
  %27 = fsub double %18, %23
  %28 = fmul double %26, %27
  %29 = fsub double %18, %24
  %30 = fmul double %29, %28
  %31 = fsub double %18, %25
  %32 = fmul double %31, %30
  %33 = fmul double %22, %23
  %34 = fmul double %33, %24
  %35 = fmul double %34, %25
  %36 = fmul double %21, 0x400921FB4D12D84A
  %37 = fdiv double %36, 3.600000e+02
  %38 = call double @cos(double %37) #5
  %39 = fmul double %35, %38
  %40 = call double @cos(double %37) #5
  %41 = fmul double %39, %40
  %42 = fsub double %32, %41
  %43 = fcmp olt double %42, 0.000000e+00
  br i1 %43, label %49, label %44

44:                                               ; preds = %0
  %45 = call double @sqrt(double %42) #5
  %46 = fcmp ult double %45, 0.000000e+00
  br i1 %46, label %49, label %47

47:                                               ; preds = %44
  %48 = call i32 (i8*, ...) @printf(i8* nonnull dereferenceable(1) getelementptr inbounds ([6 x i8], [6 x i8]* @.str.2, i64 0, i64 0), double %45)
  br label %51

49:                                               ; preds = %0, %44
  %50 = call i32 (i8*, ...) @printf(i8* nonnull dereferenceable(1) getelementptr inbounds ([14 x i8], [14 x i8]* @.str.3, i64 0, i64 0))
  br label %51

51:                                               ; preds = %49, %47
  call void @llvm.lifetime.end.p0i8(i64 8, i8* nonnull %19) #5
  call void @llvm.lifetime.end.p0i8(i64 8, i8* nonnull %9) #5
  call void @llvm.lifetime.end.p0i8(i64 8, i8* nonnull %8) #5
  call void @llvm.lifetime.end.p0i8(i64 8, i8* nonnull %7) #5
  call void @llvm.lifetime.end.p0i8(i64 8, i8* nonnull %6) #5
  ret i32 0
}

; Function Attrs: nofree nounwind
declare noundef i32 @__isoc99_scanf(i8* nocapture noundef readonly, ...) local_unnamed_addr #4

; Function Attrs: nofree nounwind
declare noundef i32 @printf(i8* nocapture noundef readonly, ...) local_unnamed_addr #4


!llvm.module.flags = !{!0, !1, !2, !3}
!llvm.ident = !{!4}

!0 = !{i32 1, !"wchar_size", i32 4}
!1 = !{i32 7, !"PIC Level", i32 2}
!2 = !{i32 7, !"PIE Level", i32 2}
!3 = !{i32 7, !"uwtable", i32 1}
!4 = !{!"clang version 13.0.0"}
!5 = !{!6, !6, i64 0}
!6 = !{!"double", !7, i64 0}
!7 = !{!"omnipotent char", !8, i64 0}
!8 = !{!"Simple C/C++ TBAA"}
